target datalayout = "e-m:e-p270:32:32-p271:32:32-p272:64:64-i64:64-i128:128-f80:128-n8:16:32:64-S128"
target triple = "x86_64-pc-linux-gnu"

%union.SourceSpan = type { i64 }
%struct.Vmem = type { ptr, i64, i64 }
%struct.VHeader_ = type { i32, i32, [0 x i8] }
%struct.Expr_ = type { ptr, %union.SourceSpan, i16, %union.anon.33 }
%union.anon.33 = type { %struct.ExprAnySwitch }
%struct.ExprAnySwitch = type { i8, %union.anon.35 }
%union.anon.35 = type { %struct.anon.36 }
%struct.anon.36 = type { ptr, %union.SourceSpan, ptr }
%struct.ExprAsmArg = type { i64, %union.anon.48 }
%union.anon.48 = type { %struct.anon.49 }
%struct.anon.49 = type { %union.anon.50, i8 }
%union.anon.50 = type { ptr }

@.str = private unnamed_addr constant [36 x i8] c"FATAL ERROR %s -> in %s @ in %s:%d \00", align 1
@.str.1 = private unnamed_addr constant [22 x i8] c"Should be unreachable\00", align 1
@.str.2 = private unnamed_addr constant [114 x i8] c"generated/home/dtcxzyw/WorkSpace/Projects/compilers/llvm-opt-benchmark/bench/c3c/c3c/src/compiler/sema_liveness.c\00", align 1
@.str.3 = private unnamed_addr constant [13 x i8] c"TODO reached\00", align 1
@__func__.sema_trace_asm_arg_list = private unnamed_addr constant [24 x i8] c"sema_trace_asm_arg_list\00", align 1
@expr_arena = external global %struct.Vmem, align 8

; Function Attrs: nounwind uwtable
define internal ptr @exprptr(i32 noundef %0) #0 {
  %2 = alloca i32, align 4
  store i32 %0, ptr %2, align 4
  %3 = load ptr, ptr @expr_arena, align 8
  %4 = load i32, ptr %2, align 4
  %5 = zext i32 %4 to i64
  %6 = getelementptr inbounds %struct.Expr_, ptr %3, i64 %5
  ret ptr %6
}

; Function Attrs: nounwind uwtable
define internal void @sema_trace_asm_arg_list(ptr noundef %0) #0 {
  %2 = alloca i32, align 4
  %3 = alloca i32, align 4
  %4 = alloca ptr, align 8
  %5 = alloca ptr, align 8
  %6 = alloca ptr, align 8
  %7 = alloca ptr, align 8
  %8 = alloca i32, align 4
  %9 = alloca i32, align 4
  %10 = alloca ptr, align 8
  store ptr %0, ptr %6, align 8
  %11 = load ptr, ptr %6, align 8
  store ptr %11, ptr %7, align 8
  %12 = load ptr, ptr %7, align 8
  store ptr %12, ptr %4, align 8
  %13 = load ptr, ptr %4, align 8
  %14 = icmp ne ptr %13, null
  br i1 %14, label %16, label %15

15:                                               ; preds = %1
  store i32 0, ptr %3, align 4
  br label %21

16:                                               ; preds = %1
  %17 = load ptr, ptr %4, align 8
  store ptr %17, ptr %5, align 8
  %18 = load ptr, ptr %5, align 8
  %19 = getelementptr inbounds %struct.VHeader_, ptr %18, i64 -1
  %20 = load i32, ptr %19, align 4
  store i32 %20, ptr %3, align 4
  br label %21

21:                                               ; preds = %16, %15
  %22 = load i32, ptr %3, align 4
  store i32 %22, ptr %8, align 4
  store i32 0, ptr %9, align 4
  br label %23

23:                                               ; preds = %59, %21
  %24 = load i32, ptr %9, align 4
  %25 = load i32, ptr %8, align 4
  %26 = icmp ult i32 %24, %25
  br i1 %26, label %27, label %62

27:                                               ; preds = %23
  %28 = load ptr, ptr %7, align 8
  %29 = load i32, ptr %9, align 4
  %30 = zext i32 %29 to i64
  %31 = getelementptr inbounds ptr, ptr %28, i64 %30
  %32 = load ptr, ptr %31, align 8
  store ptr %32, ptr %10, align 8
  %33 = load ptr, ptr %10, align 8
  %34 = load i64, ptr %33, align 8
  %35 = and i64 %34, 255
  %36 = trunc i64 %35 to i32
  switch i32 %36, label %56 [
    i32 1, label %37
    i32 3, label %37
    i32 0, label %40
    i32 6, label %40
    i32 4, label %41
    i32 2, label %41
    i32 5, label %46
  ]

37:                                               ; preds = %27, %27
  br label %38

38:                                               ; preds = %37
  call void (ptr, ...) @error_exit(ptr noundef @.str, ptr noundef @.str.3, ptr noundef @__func__.sema_trace_asm_arg_list, ptr noundef @.str.2, i32 noundef 82) #4
  unreachable

39:                                               ; No predecessors!
  br label %40

40:                                               ; preds = %39, %27, %27
  br label %59

41:                                               ; preds = %27, %27
  %42 = load ptr, ptr %10, align 8
  %43 = getelementptr inbounds %struct.ExprAsmArg, ptr %42, i32 0, i32 1
  %44 = getelementptr inbounds %struct.anon.49, ptr %43, i32 0, i32 0
  %45 = load ptr, ptr %44, align 8
  call void @sema_trace_decl_liveness(ptr noundef %45)
  br label %59

46:                                               ; preds = %27
  %47 = load ptr, ptr %10, align 8
  %48 = getelementptr inbounds %struct.ExprAsmArg, ptr %47, i32 0, i32 1
  %49 = load i32, ptr %48, align 8
  store i32 %49, ptr %2, align 4
  %50 = load i32, ptr %2, align 4
  %51 = icmp ne i32 %50, 0
  br i1 %51, label %52, label %55

52:                                               ; preds = %46
  %53 = load i32, ptr %2, align 4
  %54 = call ptr @exprptr(i32 noundef %53)
  call void @sema_trace_expr_liveness(ptr noundef %54)
  br label %55

55:                                               ; preds = %52, %46
  br label %59

56:                                               ; preds = %27
  br label %57

57:                                               ; preds = %56
  call void (ptr, ...) @error_exit(ptr noundef @.str, ptr noundef @.str.1, ptr noundef @__func__.sema_trace_asm_arg_list, ptr noundef @.str.2, i32 noundef 94) #4
  unreachable

58:                                               ; No predecessors!
  br label %59

59:                                               ; preds = %58, %55, %41, %40
  %60 = load i32, ptr %9, align 4
  %61 = add i32 %60, 1
  store i32 %61, ptr %9, align 4
  br label %23, !llvm.loop !28

62:                                               ; preds = %23
  br label %63

63:                                               ; preds = %62
  br label %64

64:                                               ; preds = %63
  ret void
}