; Function Attrs: nounwind uwtable
define internal fastcc void @sema_trace_asm_arg_list(ptr noundef readonly %0) unnamed_addr #0 {
  %.not = icmp eq ptr %0, null
  br i1 %.not, label %._crit_edge, label %2

2:                                                ; preds = %1
  %3 = getelementptr inbounds i8, ptr %0, i64 -8
  %4 = load i32, ptr %3, align 4
  %.not20 = icmp eq i32 %4, 0
  br i1 %.not20, label %._crit_edge, label %.lr.ph.preheader

.lr.ph.preheader:                                 ; preds = %2
  %wide.trip.count = zext i32 %4 to i64
  br label %.lr.ph

.lr.ph:                                           ; preds = %.lr.ph.preheader, %21
  %indvars.iv = phi i64 [ 0, %.lr.ph.preheader ], [ %indvars.iv.next, %21 ]
  %5 = getelementptr inbounds ptr, ptr %0, i64 %indvars.iv
  %6 = load ptr, ptr %5, align 8
  %7 = load i64, ptr %6, align 8
  %8 = trunc i64 %7 to i8
  switch i8 %8, label %20 [
    i8 1, label %9
    i8 3, label %9
    i8 0, label %21
    i8 6, label %21
    i8 4, label %10
    i8 2, label %10
    i8 5, label %13
  ]

9:                                                ; preds = %.lr.ph, %.lr.ph
  tail call void (ptr, ...) @error_exit(ptr noundef nonnull @.str, ptr noundef nonnull @.str.3, ptr noundef nonnull @__func__.sema_trace_asm_arg_list, ptr noundef nonnull @.str.2, i32 noundef 82) #4
  unreachable

10:                                               ; preds = %.lr.ph, %.lr.ph
  %11 = getelementptr inbounds i8, ptr %6, i64 8
  %12 = load ptr, ptr %11, align 8
  tail call fastcc void @sema_trace_decl_liveness(ptr noundef %12)
  br label %21

13:                                               ; preds = %.lr.ph
  %14 = getelementptr inbounds i8, ptr %6, i64 8
  %15 = load i32, ptr %14, align 8
  %.not18 = icmp eq i32 %15, 0
  br i1 %.not18, label %21, label %16

16:                                               ; preds = %13
  %17 = load ptr, ptr @expr_arena, align 8
  %18 = zext i32 %15 to i64
  %19 = getelementptr inbounds %struct.Expr_, ptr %17, i64 %18
  tail call fastcc void @sema_trace_expr_liveness(ptr noundef nonnull %19)
  br label %21

20:                                               ; preds = %.lr.ph
  tail call void (ptr, ...) @error_exit(ptr noundef nonnull @.str, ptr noundef nonnull @.str.1, ptr noundef nonnull @__func__.sema_trace_asm_arg_list, ptr noundef nonnull @.str.2, i32 noundef 94) #4
  unreachable

21:                                               ; preds = %13, %16, %.lr.ph, %.lr.ph, %10
  %indvars.iv.next = add nuw nsw i64 %indvars.iv, 1
  %exitcond.not = icmp eq i64 %indvars.iv.next, %wide.trip.count
  br i1 %exitcond.not, label %._crit_edge, label %.lr.ph, !llvm.loop !28

._crit_edge:                                      ; preds = %21, %1, %2
  ret void
}